target datalayout = "e-m:e-p270:32:32-p271:32:32-p272:64:64-i64:64-i128:128-f80:128-n8:16:32:64-S128"
target triple = "x86_64-pc-linux-gnu"

%struct._fcgi_request = type { i32, i32, i32, i32, i32, i32, i32, i32, i32, ptr, ptr, [8192 x i8], [16 x i8], %struct._fcgi_req_hook, i32, %struct._fcgi_hash }
%struct._fcgi_req_hook = type { ptr, ptr, ptr }
%struct._fcgi_hash = type { [128 x ptr], ptr, ptr, ptr }
%struct._fcgi_hash_bucket = type { i32, i32, ptr, i32, ptr, ptr, ptr }

; Function Attrs: nounwind uwtable
define internal void @fcgi_hash_del(ptr noundef %0, i32 noundef %1, ptr noundef %2, i32 noundef %3) #0 {
  %5 = alloca ptr, align 8
  %6 = alloca i32, align 4
  %7 = alloca ptr, align 8
  %8 = alloca i32, align 4
  %9 = alloca i32, align 4
  %10 = alloca ptr, align 8
  store ptr %0, ptr %5, align 8
  store i32 %1, ptr %6, align 4
  store ptr %2, ptr %7, align 8
  store i32 %3, ptr %8, align 4
  %11 = load i32, ptr %6, align 4
  %12 = and i32 %11, 127
  store i32 %12, ptr %9, align 4
  %13 = load ptr, ptr %5, align 8
  %14 = getelementptr inbounds %struct._fcgi_hash, ptr %13, i32 0, i32 0
  %15 = load i32, ptr %9, align 4
  %16 = zext i32 %15 to i64
  %17 = getelementptr inbounds [128 x ptr], ptr %14, i64 0, i64 %16
  store ptr %17, ptr %10, align 8
  br label %18

18:                                               ; preds = %58, %4
  %19 = load ptr, ptr %10, align 8
  %20 = load ptr, ptr %19, align 8
  %21 = icmp ne ptr %20, null
  br i1 %21, label %22, label %62

22:                                               ; preds = %18
  %23 = load ptr, ptr %10, align 8
  %24 = load ptr, ptr %23, align 8
  %25 = getelementptr inbounds %struct._fcgi_hash_bucket, ptr %24, i32 0, i32 0
  %26 = load i32, ptr %25, align 8
  %27 = load i32, ptr %6, align 4
  %28 = icmp eq i32 %26, %27
  br i1 %28, label %29, label %58

29:                                               ; preds = %22
  %30 = load ptr, ptr %10, align 8
  %31 = load ptr, ptr %30, align 8
  %32 = getelementptr inbounds %struct._fcgi_hash_bucket, ptr %31, i32 0, i32 1
  %33 = load i32, ptr %32, align 4
  %34 = load i32, ptr %8, align 4
  %35 = icmp eq i32 %33, %34
  br i1 %35, label %36, label %58

36:                                               ; preds = %29
  %37 = load ptr, ptr %10, align 8
  %38 = load ptr, ptr %37, align 8
  %39 = getelementptr inbounds %struct._fcgi_hash_bucket, ptr %38, i32 0, i32 2
  %40 = load ptr, ptr %39, align 8
  %41 = load ptr, ptr %7, align 8
  %42 = load i32, ptr %8, align 4
  %43 = zext i32 %42 to i64
  %44 = call i32 @memcmp(ptr noundef %40, ptr noundef %41, i64 noundef %43) #16
  %45 = icmp eq i32 %44, 0
  br i1 %45, label %46, label %58

46:                                               ; preds = %36
  %47 = load ptr, ptr %10, align 8
  %48 = load ptr, ptr %47, align 8
  %49 = getelementptr inbounds %struct._fcgi_hash_bucket, ptr %48, i32 0, i32 4
  store ptr null, ptr %49, align 8
  %50 = load ptr, ptr %10, align 8
  %51 = load ptr, ptr %50, align 8
  %52 = getelementptr inbounds %struct._fcgi_hash_bucket, ptr %51, i32 0, i32 3
  store i32 0, ptr %52, align 8
  %53 = load ptr, ptr %10, align 8
  %54 = load ptr, ptr %53, align 8
  %55 = getelementptr inbounds %struct._fcgi_hash_bucket, ptr %54, i32 0, i32 5
  %56 = load ptr, ptr %55, align 8
  %57 = load ptr, ptr %10, align 8
  store ptr %56, ptr %57, align 8
  br label %62

58:                                               ; preds = %36, %29, %22
  %59 = load ptr, ptr %10, align 8
  %60 = load ptr, ptr %59, align 8
  %61 = getelementptr inbounds %struct._fcgi_hash_bucket, ptr %60, i32 0, i32 5
  store ptr %61, ptr %10, align 8
  br label %18

62:                                               ; preds = %46, %18
  ret void
}

; Function Attrs: nounwind uwtable
define hidden ptr @fcgi_putenv(ptr noundef %0, ptr noundef %1, i32 noundef %2, ptr noundef %3) #0 {
  %5 = alloca ptr, align 8
  %6 = alloca ptr, align 8
  %7 = alloca ptr, align 8
  %8 = alloca i32, align 4
  %9 = alloca ptr, align 8
  store ptr %0, ptr %6, align 8
  store ptr %1, ptr %7, align 8
  store i32 %2, ptr %8, align 4
  store ptr %3, ptr %9, align 8
  %10 = load ptr, ptr %6, align 8
  %11 = icmp ne ptr %10, null
  br i1 %11, label %13, label %12

12:                                               ; preds = %4
  store ptr null, ptr %5, align 8
  br label %105

13:                                               ; preds = %4
  %14 = load ptr, ptr %9, align 8
  %15 = icmp eq ptr %14, null
  br i1 %15, label %16, label %58

16:                                               ; preds = %13
  %17 = load ptr, ptr %6, align 8
  %18 = getelementptr inbounds %struct._fcgi_request, ptr %17, i32 0, i32 15
  %19 = load i32, ptr %8, align 4
  %20 = icmp slt i32 %19, 3
  %21 = xor i1 %20, true
  %22 = xor i1 %21, true
  %23 = zext i1 %22 to i32
  %24 = sext i32 %23 to i64
  %25 = icmp ne i64 %24, 0
  br i1 %25, label %26, label %28

26:                                               ; preds = %16
  %27 = load i32, ptr %8, align 4
  br label %54

28:                                               ; preds = %16
  %29 = load ptr, ptr %7, align 8
  %30 = getelementptr inbounds i8, ptr %29, i64 3
  %31 = load i8, ptr %30, align 1
  %32 = sext i8 %31 to i32
  %33 = shl i32 %32, 2
  %34 = load ptr, ptr %7, align 8
  %35 = load i32, ptr %8, align 4
  %36 = sub nsw i32 %35, 2
  %37 = sext i32 %36 to i64
  %38 = getelementptr inbounds i8, ptr %34, i64 %37
  %39 = load i8, ptr %38, align 1
  %40 = sext i8 %39 to i32
  %41 = shl i32 %40, 4
  %42 = add i32 %33, %41
  %43 = load ptr, ptr %7, align 8
  %44 = load i32, ptr %8, align 4
  %45 = sub nsw i32 %44, 1
  %46 = sext i32 %45 to i64
  %47 = getelementptr inbounds i8, ptr %43, i64 %46
  %48 = load i8, ptr %47, align 1
  %49 = sext i8 %48 to i32
  %50 = shl i32 %49, 2
  %51 = add i32 %42, %50
  %52 = load i32, ptr %8, align 4
  %53 = add i32 %51, %52
  br label %54

54:                                               ; preds = %28, %26
  %55 = phi i32 [ %27, %26 ], [ %53, %28 ]
  %56 = load ptr, ptr %7, align 8
  %57 = load i32, ptr %8, align 4
  call void @fcgi_hash_del(ptr noundef %18, i32 noundef %55, ptr noundef %56, i32 noundef %57)
  store ptr null, ptr %5, align 8
  br label %105

58:                                               ; preds = %13
  %59 = load ptr, ptr %6, align 8
  %60 = getelementptr inbounds %struct._fcgi_request, ptr %59, i32 0, i32 15
  %61 = load i32, ptr %8, align 4
  %62 = icmp slt i32 %61, 3
  %63 = xor i1 %62, true
  %64 = xor i1 %63, true
  %65 = zext i1 %64 to i32
  %66 = sext i32 %65 to i64
  %67 = icmp ne i64 %66, 0
  br i1 %67, label %68, label %70

68:                                               ; preds = %58
  %69 = load i32, ptr %8, align 4
  br label %96

70:                                               ; preds = %58
  %71 = load ptr, ptr %7, align 8
  %72 = getelementptr inbounds i8, ptr %71, i64 3
  %73 = load i8, ptr %72, align 1
  %74 = sext i8 %73 to i32
  %75 = shl i32 %74, 2
  %76 = load ptr, ptr %7, align 8
  %77 = load i32, ptr %8, align 4
  %78 = sub nsw i32 %77, 2
  %79 = sext i32 %78 to i64
  %80 = getelementptr inbounds i8, ptr %76, i64 %79
  %81 = load i8, ptr %80, align 1
  %82 = sext i8 %81 to i32
  %83 = shl i32 %82, 4
  %84 = add i32 %75, %83
  %85 = load ptr, ptr %7, align 8
  %86 = load i32, ptr %8, align 4
  %87 = sub nsw i32 %86, 1
  %88 = sext i32 %87 to i64
  %89 = getelementptr inbounds i8, ptr %85, i64 %88
  %90 = load i8, ptr %89, align 1
  %91 = sext i8 %90 to i32
  %92 = shl i32 %91, 2
  %93 = add i32 %84, %92
  %94 = load i32, ptr %8, align 4
  %95 = add i32 %93, %94
  br label %96

96:                                               ; preds = %70, %68
  %97 = phi i32 [ %69, %68 ], [ %95, %70 ]
  %98 = load ptr, ptr %7, align 8
  %99 = load i32, ptr %8, align 4
  %100 = load ptr, ptr %9, align 8
  %101 = load ptr, ptr %9, align 8
  %102 = call i64 @strlen(ptr noundef %101) #16
  %103 = trunc i64 %102 to i32
  %104 = call ptr @fcgi_hash_set(ptr noundef %60, i32 noundef %97, ptr noundef %98, i32 noundef %99, ptr noundef %100, i32 noundef %103)
  store ptr %104, ptr %5, align 8
  br label %105

105:                                              ; preds = %96, %54, %12
  %106 = load ptr, ptr %5, align 8
  ret ptr %106
}