; Function Attrs: nofree nounwind uwtable
define hidden ptr @fcgi_putenv(ptr noundef %0, ptr nocapture noundef readonly %1, i32 noundef %2, ptr noundef readonly %3) local_unnamed_addr #22 {
  %.not = icmp eq ptr %0, null
  br i1 %.not, label %fcgi_hash_del.exit, label %5

5:                                                ; preds = %4
  %6 = icmp eq ptr %3, null
  %7 = getelementptr inbounds i8, ptr %0, i64 8296
  %8 = icmp slt i32 %2, 3
  br i1 %6, label %9, label %56

9:                                                ; preds = %5
  br i1 %8, label %27, label %10

10:                                               ; preds = %9
  %11 = getelementptr inbounds i8, ptr %1, i64 3
  %12 = load i8, ptr %11, align 1
  %13 = sext i8 %12 to i32
  %14 = zext nneg i32 %2 to i64
  %15 = getelementptr i8, ptr %1, i64 %14
  %16 = getelementptr i8, ptr %15, i64 -2
  %17 = load i8, ptr %16, align 1
  %18 = sext i8 %17 to i32
  %19 = shl nsw i32 %18, 4
  %20 = getelementptr i8, ptr %15, i64 -1
  %21 = load i8, ptr %20, align 1
  %22 = sext i8 %21 to i32
  %23 = add nsw i32 %22, %13
  %24 = shl nsw i32 %23, 2
  %25 = add i32 %19, %2
  %26 = add i32 %25, %24
  br label %27

27:                                               ; preds = %9, %10
  %28 = phi i32 [ %26, %10 ], [ %2, %9 ]
  %29 = and i32 %28, 127
  %30 = zext nneg i32 %29 to i64
  %31 = getelementptr inbounds [128 x ptr], ptr %7, i64 0, i64 %30
  %32 = load ptr, ptr %31, align 8
  %.not19.i = icmp eq ptr %32, null
  br i1 %.not19.i, label %fcgi_hash_del.exit, label %.lr.ph.i

.lr.ph.i:                                         ; preds = %27
  %33 = zext i32 %2 to i64
  br label %34

34:                                               ; preds = %53, %.lr.ph.i
  %35 = phi ptr [ %32, %.lr.ph.i ], [ %55, %53 ]
  %.020.i = phi ptr [ %31, %.lr.ph.i ], [ %54, %53 ]
  %36 = load i32, ptr %35, align 8
  %37 = icmp eq i32 %36, %28
  br i1 %37, label %38, label %53

38:                                               ; preds = %34
  %39 = getelementptr inbounds i8, ptr %35, i64 4
  %40 = load i32, ptr %39, align 4
  %41 = icmp eq i32 %40, %2
  br i1 %41, label %42, label %53

42:                                               ; preds = %38
  %43 = getelementptr inbounds i8, ptr %35, i64 8
  %44 = load ptr, ptr %43, align 8
  %bcmp.i = tail call i32 @bcmp(ptr %44, ptr %1, i64 %33)
  %45 = icmp eq i32 %bcmp.i, 0
  br i1 %45, label %46, label %53

46:                                               ; preds = %42
  %47 = getelementptr inbounds i8, ptr %35, i64 24
  store ptr null, ptr %47, align 8
  %48 = load ptr, ptr %.020.i, align 8
  %49 = getelementptr inbounds i8, ptr %48, i64 16
  store i32 0, ptr %49, align 8
  %50 = load ptr, ptr %.020.i, align 8
  %51 = getelementptr inbounds i8, ptr %50, i64 32
  %52 = load ptr, ptr %51, align 8
  store ptr %52, ptr %.020.i, align 8
  br label %fcgi_hash_del.exit

53:                                               ; preds = %42, %38, %34
  %54 = getelementptr inbounds i8, ptr %35, i64 32
  %55 = load ptr, ptr %54, align 8
  %.not.i = icmp eq ptr %55, null
  br i1 %.not.i, label %fcgi_hash_del.exit, label %34

56:                                               ; preds = %5
  br i1 %8, label %74, label %57

57:                                               ; preds = %56
  %58 = getelementptr inbounds i8, ptr %1, i64 3
  %59 = load i8, ptr %58, align 1
  %60 = sext i8 %59 to i32
  %61 = zext nneg i32 %2 to i64
  %62 = getelementptr i8, ptr %1, i64 %61
  %63 = getelementptr i8, ptr %62, i64 -2
  %64 = load i8, ptr %63, align 1
  %65 = sext i8 %64 to i32
  %66 = shl nsw i32 %65, 4
  %67 = getelementptr i8, ptr %62, i64 -1
  %68 = load i8, ptr %67, align 1
  %69 = sext i8 %68 to i32
  %70 = add nsw i32 %69, %60
  %71 = shl nsw i32 %70, 2
  %72 = add i32 %66, %2
  %73 = add i32 %72, %71
  br label %74

74:                                               ; preds = %56, %57
  %75 = phi i32 [ %73, %57 ], [ %2, %56 ]
  %76 = tail call i64 @strlen(ptr noundef nonnull dereferenceable(1) %3) #35
  %77 = trunc i64 %76 to i32
  %78 = tail call fastcc ptr @fcgi_hash_set(ptr noundef nonnull %7, i32 noundef %75, ptr noundef %1, i32 noundef %2, ptr noundef nonnull %3, i32 noundef %77)
  br label %fcgi_hash_del.exit

fcgi_hash_del.exit:                               ; preds = %53, %46, %27, %4, %74
  %.0 = phi ptr [ %78, %74 ], [ null, %4 ], [ null, %27 ], [ null, %46 ], [ null, %53 ]
  ret ptr %.0
}